target datalayout = "e-m:e-p270:32:32-p271:32:32-p272:64:64-i64:64-i128:128-f80:128-n8:16:32:64-S128"
target triple = "x86_64-pc-linux-gnu"

%"class.cvc5::internal::FatalStream" = type { i8 }

@.str = private unnamed_addr constant [2 x i8] c"?\00", align 1
@.str.4 = private unnamed_addr constant [130 x i8] c"generated/home/dtcxzyw/WorkSpace/Projects/compilers/llvm-opt-benchmark/bench/cvc5/cvc5/src/theory/quantifiers/cegqi/ceg_utils.cpp\00", align 1
@.str.5 = private unnamed_addr constant [26 x i8] c"Unreachable code reached \00", align 1
@.str.6 = private unnamed_addr constant [4 x i8] c"eqc\00", align 1
@.str.7 = private unnamed_addr constant [3 x i8] c"eq\00", align 1
@.str.8 = private unnamed_addr constant [3 x i8] c"as\00", align 1
@.str.9 = private unnamed_addr constant [3 x i8] c"mv\00", align 1
@__PRETTY_FUNCTION__._ZN4cvc58internal6theory11quantifierslsERSoNS2_12CegInstPhaseE = private unnamed_addr constant [92 x i8] c"std::ostream &cvc5::internal::theory::quantifiers::operator<<(std::ostream &, CegInstPhase)\00", align 1

; Function Attrs: mustprogress uwtable
define hidden noundef nonnull align 8 dereferenceable(8) ptr @_ZN4cvc58internal6theory11quantifierslsERSoNS2_12CegInstPhaseE(ptr noundef nonnull align 8 dereferenceable(8) %0, i32 noundef %1) #5 personality ptr @__gxx_personality_v0 {
  %3 = alloca ptr, align 8
  %4 = alloca i32, align 4
  %5 = alloca %"class.cvc5::internal::FatalStream", align 1
  %6 = alloca ptr, align 8
  %7 = alloca i32, align 4
  store ptr %0, ptr %3, align 8, !tbaa !7
  store i32 %1, ptr %4, align 4, !tbaa !16
  %8 = load i32, ptr %4, align 4, !tbaa !16
  switch i32 %8, label %24 [
    i32 0, label %9
    i32 1, label %12
    i32 2, label %15
    i32 3, label %18
    i32 4, label %21
  ]

9:                                                ; preds = %2
  %10 = load ptr, ptr %3, align 8, !tbaa !7
  %11 = call noundef nonnull align 8 dereferenceable(8) ptr @_ZStlsISt11char_traitsIcEERSt13basic_ostreamIcT_ES5_PKc(ptr noundef nonnull align 8 dereferenceable(8) %10, ptr noundef @.str)
  br label %34

12:                                               ; preds = %2
  %13 = load ptr, ptr %3, align 8, !tbaa !7
  %14 = call noundef nonnull align 8 dereferenceable(8) ptr @_ZStlsISt11char_traitsIcEERSt13basic_ostreamIcT_ES5_PKc(ptr noundef nonnull align 8 dereferenceable(8) %13, ptr noundef @.str.6)
  br label %34

15:                                               ; preds = %2
  %16 = load ptr, ptr %3, align 8, !tbaa !7
  %17 = call noundef nonnull align 8 dereferenceable(8) ptr @_ZStlsISt11char_traitsIcEERSt13basic_ostreamIcT_ES5_PKc(ptr noundef nonnull align 8 dereferenceable(8) %16, ptr noundef @.str.7)
  br label %34

18:                                               ; preds = %2
  %19 = load ptr, ptr %3, align 8, !tbaa !7
  %20 = call noundef nonnull align 8 dereferenceable(8) ptr @_ZStlsISt11char_traitsIcEERSt13basic_ostreamIcT_ES5_PKc(ptr noundef nonnull align 8 dereferenceable(8) %19, ptr noundef @.str.8)
  br label %34

21:                                               ; preds = %2
  %22 = load ptr, ptr %3, align 8, !tbaa !7
  %23 = call noundef nonnull align 8 dereferenceable(8) ptr @_ZStlsISt11char_traitsIcEERSt13basic_ostreamIcT_ES5_PKc(ptr noundef nonnull align 8 dereferenceable(8) %22, ptr noundef @.str.9)
  br label %34

24:                                               ; preds = %2
  call void @llvm.lifetime.start.p0(i64 1, ptr %5) #3
  call void @_ZN4cvc58internal11FatalStreamC1EPKcS3_i(ptr noundef nonnull align 1 dereferenceable(1) %5, ptr noundef @__PRETTY_FUNCTION__._ZN4cvc58internal6theory11quantifierslsERSoNS2_12CegInstPhaseE, ptr noundef @.str.4, i32 noundef 96)
  %25 = invoke noundef nonnull align 8 dereferenceable(8) ptr @_ZN4cvc58internal11FatalStream6streamEv(ptr noundef nonnull align 1 dereferenceable(1) %5)
          to label %26 unwind label %29

26:                                               ; preds = %24
  %27 = invoke noundef nonnull align 8 dereferenceable(8) ptr @_ZStlsISt11char_traitsIcEERSt13basic_ostreamIcT_ES5_PKc(ptr noundef nonnull align 8 dereferenceable(8) %25, ptr noundef @.str.5)
          to label %28 unwind label %29

28:                                               ; preds = %26
  call void @_ZN4cvc58internal11FatalStreamD1Ev(ptr noundef nonnull align 1 dereferenceable(1) %5) #15
  unreachable

29:                                               ; preds = %26, %24
  %30 = landingpad { ptr, i32 }
          cleanup
  %31 = extractvalue { ptr, i32 } %30, 0
  store ptr %31, ptr %6, align 8
  %32 = extractvalue { ptr, i32 } %30, 1
  store i32 %32, ptr %7, align 4
  call void @_ZN4cvc58internal11FatalStreamD1Ev(ptr noundef nonnull align 1 dereferenceable(1) %5) #15
  unreachable

33:                                               ; No predecessors!
  call void @llvm.lifetime.end.p0(i64 1, ptr %5) #3
  br label %36

34:                                               ; preds = %21, %18, %15, %12, %9
  %35 = load ptr, ptr %3, align 8, !tbaa !7
  ret ptr %35

36:                                               ; preds = %33
  %37 = load ptr, ptr %6, align 8
  %38 = load i32, ptr %7, align 4
  %39 = insertvalue { ptr, i32 } poison, ptr %37, 0
  %40 = insertvalue { ptr, i32 } %39, i32 %38, 1
  resume { ptr, i32 } %40
}