; Function Attrs: mustprogress uwtable
define hidden noundef nonnull align 8 dereferenceable(8) ptr @_ZN4cvc58internal6theory11quantifierslsERSoNS2_12CegInstPhaseE(ptr noundef nonnull returned align 8 dereferenceable(8) %0, i32 noundef %1) local_unnamed_addr #4 personality ptr @__gxx_personality_v0 {
  %3 = alloca %"class.cvc5::internal::FatalStream", align 1
  switch i32 %1, label %14 [
    i32 0, label %4
    i32 1, label %6
    i32 2, label %8
    i32 3, label %10
    i32 4, label %12
  ]

4:                                                ; preds = %2
  %5 = tail call noundef nonnull align 8 dereferenceable(8) ptr @_ZSt16__ostream_insertIcSt11char_traitsIcEERSt13basic_ostreamIT_T0_ES6_PKS3_l(ptr noundef nonnull align 8 dereferenceable(8) %0, ptr noundef nonnull @.str, i64 noundef 1)
  br label %21

6:                                                ; preds = %2
  %7 = tail call noundef nonnull align 8 dereferenceable(8) ptr @_ZSt16__ostream_insertIcSt11char_traitsIcEERSt13basic_ostreamIT_T0_ES6_PKS3_l(ptr noundef nonnull align 8 dereferenceable(8) %0, ptr noundef nonnull @.str.6, i64 noundef 3)
  br label %21

8:                                                ; preds = %2
  %9 = tail call noundef nonnull align 8 dereferenceable(8) ptr @_ZSt16__ostream_insertIcSt11char_traitsIcEERSt13basic_ostreamIT_T0_ES6_PKS3_l(ptr noundef nonnull align 8 dereferenceable(8) %0, ptr noundef nonnull @.str.7, i64 noundef 2)
  br label %21

10:                                               ; preds = %2
  %11 = tail call noundef nonnull align 8 dereferenceable(8) ptr @_ZSt16__ostream_insertIcSt11char_traitsIcEERSt13basic_ostreamIT_T0_ES6_PKS3_l(ptr noundef nonnull align 8 dereferenceable(8) %0, ptr noundef nonnull @.str.8, i64 noundef 2)
  br label %21

12:                                               ; preds = %2
  %13 = tail call noundef nonnull align 8 dereferenceable(8) ptr @_ZSt16__ostream_insertIcSt11char_traitsIcEERSt13basic_ostreamIT_T0_ES6_PKS3_l(ptr noundef nonnull align 8 dereferenceable(8) %0, ptr noundef nonnull @.str.9, i64 noundef 2)
  br label %21

14:                                               ; preds = %2
  call void @llvm.lifetime.start.p0(i64 1, ptr nonnull %3) #19
  call void @_ZN4cvc58internal11FatalStreamC1EPKcS3_i(ptr noundef nonnull align 1 dereferenceable(1) %3, ptr noundef nonnull @__PRETTY_FUNCTION__._ZN4cvc58internal6theory11quantifierslsERSoNS2_12CegInstPhaseE, ptr noundef nonnull @.str.4, i32 noundef 96)
  %15 = invoke noundef nonnull align 8 dereferenceable(8) ptr @_ZN4cvc58internal11FatalStream6streamEv(ptr noundef nonnull align 1 dereferenceable(1) %3)
          to label %16 unwind label %19

16:                                               ; preds = %14
  %17 = invoke noundef nonnull align 8 dereferenceable(8) ptr @_ZStlsISt11char_traitsIcEERSt13basic_ostreamIcT_ES5_PKc(ptr noundef nonnull align 8 dereferenceable(8) %15, ptr noundef nonnull @.str.5)
          to label %18 unwind label %19

18:                                               ; preds = %16
  call void @_ZN4cvc58internal11FatalStreamD1Ev(ptr noundef nonnull align 1 dereferenceable(1) %3) #20
  unreachable

19:                                               ; preds = %16, %14
  %20 = landingpad { ptr, i32 }
          cleanup
  call void @_ZN4cvc58internal11FatalStreamD1Ev(ptr noundef nonnull align 1 dereferenceable(1) %3) #20
  unreachable

21:                                               ; preds = %12, %10, %8, %6, %4
  ret ptr %0
}